; ModuleID = '48/1621.c'
source_filename = "48/1621.c"
target datalayout = "e-m:e-p270:32:32-p271:32:32-p272:64:64-i64:64-f80:128-n8:16:32:64-S128"
target triple = "x86_64-pc-linux-gnu"

@.str = private unnamed_addr constant [6 x i8] c"%d %d\00", align 1
@.str.1 = private unnamed_addr constant [4 x i8] c"%d \00", align 1
@.str.2 = private unnamed_addr constant [4 x i8] c"%d\0A\00", align 1

; Function Attrs: noinline nounwind uwtable
define dso_local i32 @main() #0 {
  %1 = alloca i32, align 4
  %2 = alloca [9 x [9 x i32]], align 16
  %3 = alloca [9 x [9 x i32]], align 16
  %4 = alloca i32, align 4
  %5 = alloca i32, align 4
  %6 = alloca i32, align 4
  %7 = alloca i32, align 4
  %8 = alloca i32, align 4
  %9 = alloca i32, align 4
  %10 = alloca i32, align 4
  store i32 0, i32* %1, align 4
  %11 = call i32 (i8*, ...) @__isoc99_scanf(i8* getelementptr inbounds ([6 x i8], [6 x i8]* @.str, i64 0, i64 0), i32* %7, i32* %8)
  %12 = getelementptr inbounds [9 x [9 x i32]], [9 x [9 x i32]]* %2, i64 0, i64 0
  %13 = bitcast [9 x i32]* %12 to i8*
  call void @llvm.memset.p0i8.i64(i8* align 16 %13, i8 0, i64 324, i1 false)
  %14 = load i32, i32* %7, align 4
  %15 = getelementptr inbounds [9 x [9 x i32]], [9 x [9 x i32]]* %2, i64 0, i64 4
  %16 = getelementptr inbounds [9 x i32], [9 x i32]* %15, i64 0, i64 4
  store i32 %14, i32* %16, align 16
  store i32 0, i32* %6, align 4
  br label %17

17:                                               ; preds = %94, %0
  %18 = load i32, i32* %6, align 4
  %19 = load i32, i32* %8, align 4
  %20 = icmp slt i32 %18, %19
  br i1 %20, label %21, label %97

21:                                               ; preds = %17
  %22 = getelementptr inbounds [9 x [9 x i32]], [9 x [9 x i32]]* %3, i64 0, i64 0
  %23 = bitcast [9 x i32]* %22 to i8*
  call void @llvm.memset.p0i8.i64(i8* align 16 %23, i8 0, i64 324, i1 false)
  store i32 1, i32* %4, align 4
  br label %24

24:                                               ; preds = %86, %21
  %25 = load i32, i32* %4, align 4
  %26 = icmp slt i32 %25, 8
  br i1 %26, label %27, label %89

27:                                               ; preds = %24
  store i32 1, i32* %5, align 4
  br label %28

28:                                               ; preds = %82, %27
  %29 = load i32, i32* %5, align 4
  %30 = icmp slt i32 %29, 8
  br i1 %30, label %31, label %85

31:                                               ; preds = %28
  %32 = load i32, i32* %4, align 4
  %33 = sext i32 %32 to i64
  %34 = getelementptr inbounds [9 x [9 x i32]], [9 x [9 x i32]]* %2, i64 0, i64 %33
  %35 = load i32, i32* %5, align 4
  %36 = sext i32 %35 to i64
  %37 = getelementptr inbounds [9 x i32], [9 x i32]* %34, i64 0, i64 %36
  %38 = load i32, i32* %37, align 4
  %39 = load i32, i32* %4, align 4
  %40 = sext i32 %39 to i64
  %41 = getelementptr inbounds [9 x [9 x i32]], [9 x [9 x i32]]* %3, i64 0, i64 %40
  %42 = load i32, i32* %5, align 4
  %43 = sext i32 %42 to i64
  %44 = getelementptr inbounds [9 x i32], [9 x i32]* %41, i64 0, i64 %43
  %45 = load i32, i32* %44, align 4
  %46 = add nsw i32 %45, %38
  store i32 %46, i32* %44, align 4
  store i32 -1, i32* %9, align 4
  br label %47

47:                                               ; preds = %78, %31
  %48 = load i32, i32* %9, align 4
  %49 = icmp sle i32 %48, 1
  br i1 %49, label %50, label %81

50:                                               ; preds = %47
  store i32 -1, i32* %10, align 4
  br label %51

51:                                               ; preds = %74, %50
  %52 = load i32, i32* %10, align 4
  %53 = icmp sle i32 %52, 1
  br i1 %53, label %54, label %77

54:                                               ; preds = %51
  %55 = load i32, i32* %4, align 4
  %56 = sext i32 %55 to i64
  %57 = getelementptr inbounds [9 x [9 x i32]], [9 x [9 x i32]]* %2, i64 0, i64 %56
  %58 = load i32, i32* %5, align 4
  %59 = sext i32 %58 to i64
  %60 = getelementptr inbounds [9 x i32], [9 x i32]* %57, i64 0, i64 %59
  %61 = load i32, i32* %60, align 4
  %62 = load i32, i32* %4, align 4
  %63 = load i32, i32* %9, align 4
  %64 = add nsw i32 %62, %63
  %65 = sext i32 %64 to i64
  %66 = getelementptr inbounds [9 x [9 x i32]], [9 x [9 x i32]]* %3, i64 0, i64 %65
  %67 = load i32, i32* %5, align 4
  %68 = load i32, i32* %10, align 4
  %69 = add nsw i32 %67, %68
  %70 = sext i32 %69 to i64
  %71 = getelementptr inbounds [9 x i32], [9 x i32]* %66, i64 0, i64 %70
  %72 = load i32, i32* %71, align 4
  %73 = add nsw i32 %72, %61
  store i32 %73, i32* %71, align 4
  br label %74

74:                                               ; preds = %54
  %75 = load i32, i32* %10, align 4
  %76 = add nsw i32 %75, 1
  store i32 %76, i32* %10, align 4
  br label %51

77:                                               ; preds = %51
  br label %78

78:                                               ; preds = %77
  %79 = load i32, i32* %9, align 4
  %80 = add nsw i32 %79, 1
  store i32 %80, i32* %9, align 4
  br label %47

81:                                               ; preds = %47
  br label %82

82:                                               ; preds = %81
  %83 = load i32, i32* %5, align 4
  %84 = add nsw i32 %83, 1
  store i32 %84, i32* %5, align 4
  br label %28

85:                                               ; preds = %28
  br label %86

86:                                               ; preds = %85
  %87 = load i32, i32* %4, align 4
  %88 = add nsw i32 %87, 1
  store i32 %88, i32* %4, align 4
  br label %24

89:                                               ; preds = %24
  %90 = getelementptr inbounds [9 x [9 x i32]], [9 x [9 x i32]]* %2, i64 0, i64 0
  %91 = bitcast [9 x i32]* %90 to i8*
  %92 = getelementptr inbounds [9 x [9 x i32]], [9 x [9 x i32]]* %3, i64 0, i64 0
  %93 = bitcast [9 x i32]* %92 to i8*
  call void @llvm.memcpy.p0i8.p0i8.i64(i8* align 16 %91, i8* align 16 %93, i64 324, i1 false)
  br label %94

94:                                               ; preds = %89
  %95 = load i32, i32* %6, align 4
  %96 = add nsw i32 %95, 1
  store i32 %96, i32* %6, align 4
  br label %17

97:                                               ; preds = %17
  store i32 0, i32* %4, align 4
  br label %98

98:                                               ; preds = %124, %97
  %99 = load i32, i32* %4, align 4
  %100 = icmp slt i32 %99, 9
  br i1 %100, label %101, label %127

101:                                              ; preds = %98
  store i32 0, i32* %5, align 4
  br label %102

102:                                              ; preds = %114, %101
  %103 = load i32, i32* %5, align 4
  %104 = icmp slt i32 %103, 8
  br i1 %104, label %105, label %117

105:                                              ; preds = %102
  %106 = load i32, i32* %4, align 4
  %107 = sext i32 %106 to i64
  %108 = getelementptr inbounds [9 x [9 x i32]], [9 x [9 x i32]]* %2, i64 0, i64 %107
  %109 = load i32, i32* %5, align 4
  %110 = sext i32 %109 to i64
  %111 = getelementptr inbounds [9 x i32], [9 x i32]* %108, i64 0, i64 %110
  %112 = load i32, i32* %111, align 4
  %113 = call i32 (i8*, ...) @printf(i8* getelementptr inbounds ([4 x i8], [4 x i8]* @.str.1, i64 0, i64 0), i32 %112)
  br label %114

114:                                              ; preds = %105
  %115 = load i32, i32* %5, align 4
  %116 = add nsw i32 %115, 1
  store i32 %116, i32* %5, align 4
  br label %102

117:                                              ; preds = %102
  %118 = load i32, i32* %4, align 4
  %119 = sext i32 %118 to i64
  %120 = getelementptr inbounds [9 x [9 x i32]], [9 x [9 x i32]]* %2, i64 0, i64 %119
  %121 = getelementptr inbounds [9 x i32], [9 x i32]* %120, i64 0, i64 8
  %122 = load i32, i32* %121, align 4
  %123 = call i32 (i8*, ...) @printf(i8* getelementptr inbounds ([4 x i8], [4 x i8]* @.str.2, i64 0, i64 0), i32 %122)
  br label %124

124:                                              ; preds = %117
  %125 = load i32, i32* %4, align 4
  %126 = add nsw i32 %125, 1
  store i32 %126, i32* %4, align 4
  br label %98

127:                                              ; preds = %98
  %128 = load i32, i32* %1, align 4
  ret i32 %128
}

declare dso_local i32 @__isoc99_scanf(i8*, ...) #1

; Function Attrs: argmemonly nounwind willreturn
declare void @llvm.memset.p0i8.i64(i8* nocapture writeonly, i8, i64, i1 immarg) #2

; Function Attrs: argmemonly nounwind willreturn
declare void @llvm.memcpy.p0i8.p0i8.i64(i8* noalias nocapture writeonly, i8* noalias nocapture readonly, i64, i1 immarg) #2

declare dso_local i32 @printf(i8*, ...) #1


!llvm.module.flags = !{!0}
!llvm.ident = !{!1}

!0 = !{i32 1, !"wchar_size", i32 4}
!1 = !{!"clang version 10.0.0-4ubuntu1 "}
